libweave.so.0 libweave0 #MINVER#
 _ZN15tracked_objects16LocationSnapshotC1ERKNS_8LocationE@Base 0.0.1
 _ZN15tracked_objects16LocationSnapshotC1Ev@Base 0.0.1
 _ZN15tracked_objects16LocationSnapshotC2ERKNS_8LocationE@Base 0.0.1
 _ZN15tracked_objects16LocationSnapshotC2Ev@Base 0.0.1
 _ZN15tracked_objects16LocationSnapshotD1Ev@Base 0.0.1
 _ZN15tracked_objects16LocationSnapshotD2Ev@Base 0.0.1
 _ZN15tracked_objects17GetProgramCounterEv@Base 0.0.1
 _ZN15tracked_objects8LocationC1EPKcS2_iPKv@Base 0.0.1
 _ZN15tracked_objects8LocationC1ERKS0_@Base 0.0.1
 _ZN15tracked_objects8LocationC1Ev@Base 0.0.1
 _ZN15tracked_objects8LocationC2EPKcS2_iPKv@Base 0.0.1
 _ZN15tracked_objects8LocationC2ERKS0_@Base 0.0.1
 _ZN15tracked_objects8LocationC2Ev@Base 0.0.1
 _ZN4base10JSONReader11ReadToValueERKSs@Base 0.0.1
 _ZN4base10JSONReader12kSyntaxErrorE@Base 0.0.1
 _ZN4base10JSONReader14DeprecatedReadERKSs@Base 0.0.1
 _ZN4base10JSONReader14DeprecatedReadERKSsi@Base 0.0.1
 _ZN4base10JSONReader14kInvalidEscapeE@Base 0.0.1
 _ZN4base10JSONReader14kTrailingCommaE@Base 0.0.1
 _ZN4base10JSONReader15kTooMuchNestingE@Base 0.0.1
 _ZN4base10JSONReader16kUnexpectedTokenE@Base 0.0.1
 _ZN4base10JSONReader17ErrorCodeToStringENS0_14JsonParseErrorE@Base 0.0.1
 _ZN4base10JSONReader18ReadAndReturnErrorERKSsiPiPSs@Base 0.0.1
 _ZN4base10JSONReader20kUnsupportedEncodingE@Base 0.0.1
 _ZN4base10JSONReader22kUnquotedDictionaryKeyE@Base 0.0.1
 _ZN4base10JSONReader24kUnexpectedDataAfterRootE@Base 0.0.1
 _ZN4base10JSONReader28DeprecatedReadAndReturnErrorERKSsiPiPSs@Base 0.0.1
 _ZN4base10JSONReader4ReadERKSs@Base 0.0.1
 _ZN4base10JSONReader4ReadERKSsi@Base 0.0.1
 _ZN4base10JSONReaderC1Ei@Base 0.0.1
 _ZN4base10JSONReaderC1Ev@Base 0.0.1
 _ZN4base10JSONReaderC2Ei@Base 0.0.1
 _ZN4base10JSONReaderC2Ev@Base 0.0.1
 _ZN4base10JSONReaderD1Ev@Base 0.0.1
 _ZN4base10JSONReaderD2Ev@Base 0.0.1
 _ZN4base10JSONWriter10IndentLineEm@Base 0.0.1
 _ZN4base10JSONWriter15BuildJSONStringERKNS_5ValueEm@Base 0.0.1
 _ZN4base10JSONWriter16WriteWithOptionsERKNS_5ValueEiPSs@Base 0.0.1
 _ZN4base10JSONWriter5WriteERKNS_5ValueEPSs@Base 0.0.1
 _ZN4base10JSONWriterC1EiPSs@Base 0.0.1
 _ZN4base10JSONWriterC2EiPSs@Base 0.0.1
 _ZN4base11BinaryValue22CreateWithCopiedBufferEPKcm@Base 0.0.1
 _ZN4base11BinaryValueC1E10scoped_ptrIA_cNS_14DefaultDeleterIS2_EEEm@Base 0.0.1
 _ZN4base11BinaryValueC1Ev@Base 0.0.1
 _ZN4base11BinaryValueC2E10scoped_ptrIA_cNS_14DefaultDeleterIS2_EEEm@Base 0.0.1
 _ZN4base11BinaryValueC2Ev@Base 0.0.1
 _ZN4base11BinaryValueD0Ev@Base 0.0.1
 _ZN4base11BinaryValueD1Ev@Base 0.0.1
 _ZN4base11BinaryValueD2Ev@Base 0.0.1
 _ZN4base11StringValue9GetStringEv@Base 0.0.1
 _ZN4base11StringValueC1ERKSs@Base 0.0.1
 _ZN4base11StringValueC2ERKSs@Base 0.0.1
 _ZN4base11StringValueD0Ev@Base 0.0.1
 _ZN4base11StringValueD1Ev@Base 0.0.1
 _ZN4base11StringValueD2Ev@Base 0.0.1
 _ZN4base13time_internal12SaturatedAddENS_9TimeDeltaEl@Base 0.0.1
 _ZN4base13time_internal12SaturatedSubENS_9TimeDeltaEl@Base 0.0.1
 _ZN4base13time_internal18FromCheckedNumericENS_8internal14CheckedNumericIlEE@Base 0.0.1
 _ZN4base15DictionaryValue10RemovePathERKSsP10scoped_ptrINS_5ValueENS_14DefaultDeleterIS4_EEE@Base 0.0.1
 _ZN4base15DictionaryValue10SetBooleanERKSsb@Base 0.0.1
 _ZN4base15DictionaryValue10SetIntegerERKSsi@Base 0.0.1
 _ZN4base15DictionaryValue13GetDictionaryERKSsPPS0_@Base 0.0.1
 _ZN4base15DictionaryValue15GetAsDictionaryEPPS0_@Base 0.0.1
 _ZN4base15DictionaryValue15MergeDictionaryEPKS0_@Base 0.0.1
 _ZN4base15DictionaryValue23GetWithoutPathExpansionERKSsPPNS_5ValueE@Base 0.0.1
 _ZN4base15DictionaryValue23SetWithoutPathExpansionERKSs10scoped_ptrINS_5ValueENS_14DefaultDeleterIS4_EEE@Base 0.0.1
 _ZN4base15DictionaryValue23SetWithoutPathExpansionERKSsPNS_5ValueE@Base 0.0.1
 _ZN4base15DictionaryValue26RemoveWithoutPathExpansionERKSsP10scoped_ptrINS_5ValueENS_14DefaultDeleterIS4_EEE@Base 0.0.1
 _ZN4base15DictionaryValue27GetListWithoutPathExpansionERKSsPPNS_9ListValueE@Base 0.0.1
 _ZN4base15DictionaryValue29SetDoubleWithoutPathExpansionERKSsd@Base 0.0.1
 _ZN4base15DictionaryValue29SetStringWithoutPathExpansionERKSsS2_@Base 0.0.1
 _ZN4base15DictionaryValue30SetBooleanWithoutPathExpansionERKSsb@Base 0.0.1
 _ZN4base15DictionaryValue30SetIntegerWithoutPathExpansionERKSsi@Base 0.0.1
 _ZN4base15DictionaryValue33GetDictionaryWithoutPathExpansionERKSsPPS0_@Base 0.0.1
 _ZN4base15DictionaryValue3GetERKSsPPNS_5ValueE@Base 0.0.1
 _ZN4base15DictionaryValue3SetERKSs10scoped_ptrINS_5ValueENS_14DefaultDeleterIS4_EEE@Base 0.0.1
 _ZN4base15DictionaryValue3SetERKSsPNS_5ValueE@Base 0.0.1
 _ZN4base15DictionaryValue4SwapEPS0_@Base 0.0.1
 _ZN4base15DictionaryValue5ClearEv@Base 0.0.1
 _ZN4base15DictionaryValue6RemoveERKSsP10scoped_ptrINS_5ValueENS_14DefaultDeleterIS4_EEE@Base 0.0.1
 _ZN4base15DictionaryValue7GetListERKSsPPNS_9ListValueE@Base 0.0.1
 _ZN4base15DictionaryValue8IteratorC1ERKS0_@Base 0.0.1
 _ZN4base15DictionaryValue8IteratorC2ERKS0_@Base 0.0.1
 _ZN4base15DictionaryValue8IteratorD1Ev@Base 0.0.1
 _ZN4base15DictionaryValue8IteratorD2Ev@Base 0.0.1
 _ZN4base15DictionaryValue9GetBinaryERKSsPPNS_11BinaryValueE@Base 0.0.1
 _ZN4base15DictionaryValue9SetDoubleERKSsd@Base 0.0.1
 _ZN4base15DictionaryValue9SetStringERKSsS2_@Base 0.0.1
 _ZN4base15DictionaryValueC1Ev@Base 0.0.1
 _ZN4base15DictionaryValueC2Ev@Base 0.0.1
 _ZN4base15DictionaryValueD0Ev@Base 0.0.1
 _ZN4base15DictionaryValueD1Ev@Base 0.0.1
 _ZN4base15DictionaryValueD2Ev@Base 0.0.1
 _ZN4base16FundamentalValueC1Eb@Base 0.0.1
 _ZN4base16FundamentalValueC1Ed@Base 0.0.1
 _ZN4base16FundamentalValueC1Ei@Base 0.0.1
 _ZN4base16FundamentalValueC2Eb@Base 0.0.1
 _ZN4base16FundamentalValueC2Ed@Base 0.0.1
 _ZN4base16FundamentalValueC2Ei@Base 0.0.1
 _ZN4base16FundamentalValueD0Ev@Base 0.0.1
 _ZN4base16FundamentalValueD1Ev@Base 0.0.1
 _ZN4base16FundamentalValueD2Ev@Base 0.0.1
 _ZN4base4Time10FromJsTimeEd@Base 0.0.1
 _ZN4base4Time11FromDoubleTEd@Base 0.0.1
 _ZN4base4Time11FromTimeValE7timeval@Base 0.0.1
 _ZN4base4Time12FromExplodedEbRKNS0_8ExplodedE@Base 0.0.1
 _ZN4base4Time12FromTimeSpecERK8timespec@Base 0.0.1
 _ZN4base4Time17NowFromSystemTimeEv@Base 0.0.1
 _ZN4base4Time26kTimeTToMicrosecondsOffsetE@Base 0.0.1
 _ZN4base4Time30kWindowsEpochDeltaMicrosecondsE@Base 0.0.1
 _ZN4base4Time3MaxEv@Base 0.0.1
 _ZN4base4Time3NowEv@Base 0.0.1
 _ZN4base4Time9FromTimeTEl@Base 0.0.1
 _ZN4base4Time9UnixEpochEv@Base 0.0.1
 _ZN4base5ClockD0Ev@Base 0.0.1
 _ZN4base5ClockD1Ev@Base 0.0.1
 _ZN4base5ClockD2Ev@Base 0.0.1
 _ZN4base5Value15CreateNullValueEv@Base 0.0.1
 _ZN4base5Value15GetAsDictionaryEPPNS_15DictionaryValueE@Base 0.0.1
 _ZN4base5Value6EqualsEPKS0_S2_@Base 0.0.1
 _ZN4base5Value9GetAsListEPPNS_9ListValueE@Base 0.0.1
 _ZN4base5ValueC1ENS0_4TypeE@Base 0.0.1
 _ZN4base5ValueC1ERKS0_@Base 0.0.1
 _ZN4base5ValueC2ENS0_4TypeE@Base 0.0.1
 _ZN4base5ValueC2ERKS0_@Base 0.0.1
 _ZN4base5ValueD0Ev@Base 0.0.1
 _ZN4base5ValueD1Ev@Base 0.0.1
 _ZN4base5ValueD2Ev@Base 0.0.1
 _ZN4base5ValueaSERKS0_@Base 0.0.1
 _ZN4base6subtle24RefCountedThreadSafeBaseC1Ev@Base 0.0.1
 _ZN4base6subtle24RefCountedThreadSafeBaseC2Ev@Base 0.0.1
 _ZN4base6subtle24RefCountedThreadSafeBaseD1Ev@Base 0.0.1
 _ZN4base6subtle24RefCountedThreadSafeBaseD2Ev@Base 0.0.1
 _ZN4base8internal11WeakPtrBaseC1ERKNS0_13WeakReferenceE@Base 0.0.1
 _ZN4base8internal11WeakPtrBaseC1Ev@Base 0.0.1
 _ZN4base8internal11WeakPtrBaseC2ERKNS0_13WeakReferenceE@Base 0.0.1
 _ZN4base8internal11WeakPtrBaseC2Ev@Base 0.0.1
 _ZN4base8internal11WeakPtrBaseD1Ev@Base 0.0.1
 _ZN4base8internal11WeakPtrBaseD2Ev@Base 0.0.1
 _ZN4base8internal12CallbackBase5ResetEv@Base 0.0.1
 _ZN4base8internal12CallbackBaseC1EPNS0_13BindStateBaseE@Base 0.0.1
 _ZN4base8internal12CallbackBaseC1ERKS1_@Base 0.0.1
 _ZN4base8internal12CallbackBaseC2EPNS0_13BindStateBaseE@Base 0.0.1
 _ZN4base8internal12CallbackBaseC2ERKS1_@Base 0.0.1
 _ZN4base8internal12CallbackBaseD1Ev@Base 0.0.1
 _ZN4base8internal12CallbackBaseD2Ev@Base 0.0.1
 _ZN4base8internal12CallbackBaseaSERKS1_@Base 0.0.1
 _ZN4base8internal13WeakReference4Flag10InvalidateEv@Base 0.0.1
 _ZN4base8internal13WeakReference4FlagC1Ev@Base 0.0.1
 _ZN4base8internal13WeakReference4FlagC2Ev@Base 0.0.1
 _ZN4base8internal13WeakReference4FlagD1Ev@Base 0.0.1
 _ZN4base8internal13WeakReference4FlagD2Ev@Base 0.0.1
 _ZN4base8internal13WeakReferenceC1EPKNS1_4FlagE@Base 0.0.1
 _ZN4base8internal13WeakReferenceC1Ev@Base 0.0.1
 _ZN4base8internal13WeakReferenceC2EPKNS1_4FlagE@Base 0.0.1
 _ZN4base8internal13WeakReferenceC2Ev@Base 0.0.1
 _ZN4base8internal13WeakReferenceD1Ev@Base 0.0.1
 _ZN4base8internal13WeakReferenceD2Ev@Base 0.0.1
 _ZN4base8internal18WeakReferenceOwner10InvalidateEv@Base 0.0.1
 _ZN4base8internal18WeakReferenceOwnerC1Ev@Base 0.0.1
 _ZN4base8internal18WeakReferenceOwnerC2Ev@Base 0.0.1
 _ZN4base8internal18WeakReferenceOwnerD1Ev@Base 0.0.1
 _ZN4base8internal18WeakReferenceOwnerD2Ev@Base 0.0.1
 _ZN4base9ListValue12AppendDoubleEd@Base 0.0.1
 _ZN4base9ListValue12AppendStringERKSs@Base 0.0.1
 _ZN4base9ListValue13AppendBooleanEb@Base 0.0.1
 _ZN4base9ListValue13AppendIntegerEi@Base 0.0.1
 _ZN4base9ListValue13AppendStringsERKSt6vectorISsSaISsEE@Base 0.0.1
 _ZN4base9ListValue13GetDictionaryEmPPNS_15DictionaryValueE@Base 0.0.1
 _ZN4base9ListValue18AppendIfNotPresentEPNS_5ValueE@Base 0.0.1
 _ZN4base9ListValue3GetEmPPNS_5ValueE@Base 0.0.1
 _ZN4base9ListValue3SetEm10scoped_ptrINS_5ValueENS_14DefaultDeleterIS2_EEE@Base 0.0.1
 _ZN4base9ListValue3SetEmPNS_5ValueE@Base 0.0.1
 _ZN4base9ListValue4SwapEPS0_@Base 0.0.1
 _ZN4base9ListValue5ClearEv@Base 0.0.1
 _ZN4base9ListValue5EraseEN9__gnu_cxx17__normal_iteratorIPPNS_5ValueESt6vectorIS4_SaIS4_EEEEP10scoped_ptrIS3_NS_14DefaultDeleterIS3_EEE@Base 0.0.1
 _ZN4base9ListValue6AppendE10scoped_ptrINS_5ValueENS_14DefaultDeleterIS2_EEE@Base 0.0.1
 _ZN4base9ListValue6AppendEPNS_5ValueE@Base 0.0.1
 _ZN4base9ListValue6InsertEmPNS_5ValueE@Base 0.0.1
 _ZN4base9ListValue6RemoveERKNS_5ValueEPm@Base 0.0.1
 _ZN4base9ListValue6RemoveEmP10scoped_ptrINS_5ValueENS_14DefaultDeleterIS2_EEE@Base 0.0.1
 _ZN4base9ListValue7GetListEmPPS0_@Base 0.0.1
 _ZN4base9ListValue9GetAsListEPPS0_@Base 0.0.1
 _ZN4base9ListValue9GetBinaryEmPPNS_11BinaryValueE@Base 0.0.1
 _ZN4base9ListValueC1Ev@Base 0.0.1
 _ZN4base9ListValueC2Ev@Base 0.0.1
 _ZN4base9ListValueD0Ev@Base 0.0.1
 _ZN4base9ListValueD1Ev@Base 0.0.1
 _ZN4base9ListValueD2Ev@Base 0.0.1
 _ZN4base9TimeDelta3MaxEv@Base 0.0.1
 _ZN4baselsERSoNS_4TimeE@Base 0.0.1
 _ZN4baselsERSoNS_9TimeDeltaE@Base 0.0.1
 _ZN4baselsERSoRKNS_5ValueE@Base 0.0.1
 _ZN5weave15EnumToStringMapINS_11PairingTypeEEC1Ev@Base 0.0.1
 _ZN5weave15EnumToStringMapINS_11PairingTypeEEC2Ev@Base 0.0.1
 _ZN5weave15EnumToStringMapINS_6privet10CryptoTypeEEC1Ev@Base 0.0.1
 _ZN5weave15EnumToStringMapINS_6privet10CryptoTypeEEC2Ev@Base 0.0.1
 _ZN5weave15EnumToStringMapINS_6privet10SetupState6StatusEEC1Ev@Base 0.0.1
 _ZN5weave15EnumToStringMapINS_6privet10SetupState6StatusEEC2Ev@Base 0.0.1
 _ZN5weave15EnumToStringMapINS_6privet15ConnectionState6StatusEEC1Ev@Base 0.0.1
 _ZN5weave15EnumToStringMapINS_6privet15ConnectionState6StatusEEC2Ev@Base 0.0.1
 _ZN5weave15EnumToStringMapINS_6privet20WifiBootstrapManager5StateEEC1Ev@Base 0.0.1
 _ZN5weave15EnumToStringMapINS_6privet20WifiBootstrapManager5StateEEC2Ev@Base 0.0.1
 _ZN5weave15EnumToStringMapINS_6privet8WifiTypeEEC1Ev@Base 0.0.1
 _ZN5weave15EnumToStringMapINS_6privet8WifiTypeEEC2Ev@Base 0.0.1
 _ZN5weave15EnumToStringMapINS_7Command5StateEEC1Ev@Base 0.0.1
 _ZN5weave15EnumToStringMapINS_7Command5StateEEC2Ev@Base 0.0.1
 _ZN5weave15EnumToStringMapINS_7Command6OriginEEC1Ev@Base 0.0.1
 _ZN5weave15EnumToStringMapINS_7Command6OriginEEC2Ev@Base 0.0.1
 _ZN5weave15EnumToStringMapINS_8GcdStateEEC1Ev@Base 0.0.1
 _ZN5weave15EnumToStringMapINS_8GcdStateEEC2Ev@Base 0.0.1
 _ZN5weave15EnumToStringMapINS_8UserRoleEEC1Ev@Base 0.0.1
 _ZN5weave15EnumToStringMapINS_8UserRoleEEC2Ev@Base 0.0.1
 _ZN5weave15EnumToStringMapINS_8provider10HttpClient6MethodEEC1Ev@Base 0.0.1
 _ZN5weave15EnumToStringMapINS_8provider10HttpClient6MethodEEC2Ev@Base 0.0.1
 _ZN5weave15EnumToStringMapINS_8provider7Network5StateEEC1Ev@Base 0.0.1
 _ZN5weave15EnumToStringMapINS_8provider7Network5StateEEC2Ev@Base 0.0.1
 _ZN5weave15EnumToStringMapINS_9AuthScopeEEC1Ev@Base 0.0.1
 _ZN5weave15EnumToStringMapINS_9AuthScopeEEC2Ev@Base 0.0.1
 _ZN5weave5Error11AddToPrintfEPSt10unique_ptrIS0_St14default_deleteIS0_EERKN15tracked_objects8LocationERKSsSB_PKcz@Base 0.0.1
 _ZN5weave5Error17FindErrorOfDomainEPKS0_RKSs@Base 0.0.1
 _ZN5weave5Error5AddToEPSt10unique_ptrIS0_St14default_deleteIS0_EERKN15tracked_objects8LocationERKSsSB_SB_@Base 0.0.1
 _ZN5weave5Error6CreateERKN15tracked_objects8LocationERKSsS6_S6_@Base 0.0.1
 _ZN5weave5Error6CreateERKN15tracked_objects8LocationERKSsS6_S6_St10unique_ptrIS0_St14default_deleteIS0_EE@Base 0.0.1
 _ZN5weave5Error9FindErrorEPKS0_RKSsS4_@Base 0.0.1
 _ZN5weave5ErrorC1ERKN15tracked_objects16LocationSnapshotERKSsS6_S6_St10unique_ptrIS0_St14default_deleteIS0_EE@Base 0.0.1
 _ZN5weave5ErrorC1ERKN15tracked_objects8LocationERKSsS6_S6_St10unique_ptrIS0_St14default_deleteIS0_EE@Base 0.0.1
 _ZN5weave5ErrorC2ERKN15tracked_objects16LocationSnapshotERKSsS6_S6_St10unique_ptrIS0_St14default_deleteIS0_EE@Base 0.0.1
 _ZN5weave5ErrorC2ERKN15tracked_objects8LocationERKSsS6_S6_St10unique_ptrIS0_St14default_deleteIS0_EE@Base 0.0.1
 _ZN5weave6Device6CreateEPNS_8provider11ConfigStoreEPNS1_10TaskRunnerEPNS1_10HttpClientEPNS1_7NetworkEPNS1_19DnsServiceDiscoveryEPNS1_10HttpServerEPNS1_4WifiEPNS1_9BluetoothE@Base 0.0.1
 _ZN7logging10LogMessage4InitEPKci@Base 0.0.1
 _ZN7logging10LogMessageC1EPKciPSs@Base 0.0.1
 _ZN7logging10LogMessageC1EPKcii@Base 0.0.1
 _ZN7logging10LogMessageC1EPKciiPSs@Base 0.0.1
 _ZN7logging10LogMessageC2EPKciPSs@Base 0.0.1
 _ZN7logging10LogMessageC2EPKcii@Base 0.0.1
 _ZN7logging10LogMessageC2EPKciiPSs@Base 0.0.1
 _ZN7logging10LogMessageD1Ev@Base 0.0.1
 _ZN7logging10LogMessageD2Ev@Base 0.0.1
 _ZN7logging11SetLogItemsEbbbb@Base 0.0.1
 _ZN7logging14GetMinLogLevelEv@Base 0.0.1
 _ZN7logging14SetMinLogLevelEi@Base 0.0.1
 _ZN7logging15LoggingSettingsC1Ev@Base 0.0.1
 _ZN7logging15LoggingSettingsC2Ev@Base 0.0.1
 _ZN7logging16GetVlogVerbosityEv@Base 0.0.1
 _ZN7logging17MakeCheckOpStringISsSsEEPSsRKT_RKT0_PKc@Base 0.0.1
 _ZN7logging17MakeCheckOpStringIiiEEPSsRKT_RKT0_PKc@Base 0.0.1
 _ZN7logging17MakeCheckOpStringIjmEEPSsRKT_RKT0_PKc@Base 0.0.1
 _ZN7logging17MakeCheckOpStringImjEEPSsRKT_RKT0_PKc@Base 0.0.1
 _ZN7logging17MakeCheckOpStringImmEEPSsRKT_RKT0_PKc@Base 0.0.1
 _ZN7logging19SetLogAssertHandlerEPFvRKSsE@Base 0.0.1
 _ZN7logging20GetLogMessageHandlerEv@Base 0.0.1
 _ZN7logging20SetLogMessageHandlerEPFbiPKcimRKSsE@Base 0.0.1
 _ZN7logging40BaseInitLoggingImpl_built_without_NDEBUGERKNS_15LoggingSettingsE@Base 0.0.1
 _ZN7logging6RawLogEiPKc@Base 0.0.1
 _ZN9__gnu_cxx12__to_xstringISscEET_PFiPT0_mPKS2_P13__va_list_tagEmS5_z@Base 0.0.1
 _ZNK15tracked_objects8Location17WriteFunctionNameEPSs@Base 0.0.1
 _ZNK15tracked_objects8Location5WriteEbbPSs@Base 0.0.1
 _ZNK15tracked_objects8Location8ToStringEv@Base 0.0.1
 _ZNK4base10JSONReader10error_codeEv@Base 0.0.1
 _ZNK4base10JSONReader15GetErrorMessageEv@Base 0.0.1
 _ZNK4base11BinaryValue11GetAsBinaryEPPKS0_@Base 0.0.1
 _ZNK4base11BinaryValue6EqualsEPKNS_5ValueE@Base 0.0.1
 _ZNK4base11BinaryValue8DeepCopyEv@Base 0.0.1
 _ZNK4base11StringValue11GetAsStringEPPKS0_@Base 0.0.1
 _ZNK4base11StringValue11GetAsStringEPSs@Base 0.0.1
 _ZNK4base11StringValue6EqualsEPKNS_5ValueE@Base 0.0.1
 _ZNK4base11StringValue8DeepCopyEv@Base 0.0.1
 _ZNK4base11StringValue9GetStringEv@Base 0.0.1
 _ZNK4base15DictionaryValue10GetBooleanERKSsPb@Base 0.0.1
 _ZNK4base15DictionaryValue10GetIntegerERKSsPi@Base 0.0.1
 _ZNK4base15DictionaryValue13GetDictionaryERKSsPPKS0_@Base 0.0.1
 _ZNK4base15DictionaryValue14CreateDeepCopyEv@Base 0.0.1
 _ZNK4base15DictionaryValue14GetStringASCIIERKSsPSs@Base 0.0.1
 _ZNK4base15DictionaryValue15GetAsDictionaryEPPKS0_@Base 0.0.1
 _ZNK4base15DictionaryValue23GetWithoutPathExpansionERKSsPPKNS_5ValueE@Base 0.0.1
 _ZNK4base15DictionaryValue27GetListWithoutPathExpansionERKSsPPKNS_9ListValueE@Base 0.0.1
 _ZNK4base15DictionaryValue28DeepCopyWithoutEmptyChildrenEv@Base 0.0.1
 _ZNK4base15DictionaryValue29GetDoubleWithoutPathExpansionERKSsPd@Base 0.0.1
 _ZNK4base15DictionaryValue29GetStringWithoutPathExpansionERKSsPSs@Base 0.0.1
 _ZNK4base15DictionaryValue30GetBooleanWithoutPathExpansionERKSsPb@Base 0.0.1
 _ZNK4base15DictionaryValue30GetIntegerWithoutPathExpansionERKSsPi@Base 0.0.1
 _ZNK4base15DictionaryValue33GetDictionaryWithoutPathExpansionERKSsPPKS0_@Base 0.0.1
 _ZNK4base15DictionaryValue3GetERKSsPPKNS_5ValueE@Base 0.0.1
 _ZNK4base15DictionaryValue6EqualsEPKNS_5ValueE@Base 0.0.1
 _ZNK4base15DictionaryValue6HasKeyERKSs@Base 0.0.1
 _ZNK4base15DictionaryValue7GetListERKSsPPKNS_9ListValueE@Base 0.0.1
 _ZNK4base15DictionaryValue8DeepCopyEv@Base 0.0.1
 _ZNK4base15DictionaryValue9GetBinaryERKSsPPKNS_11BinaryValueE@Base 0.0.1
 _ZNK4base15DictionaryValue9GetDoubleERKSsPd@Base 0.0.1
 _ZNK4base15DictionaryValue9GetStringERKSsPSs@Base 0.0.1
 _ZNK4base16FundamentalValue11GetAsDoubleEPd@Base 0.0.1
 _ZNK4base16FundamentalValue12GetAsBooleanEPb@Base 0.0.1
 _ZNK4base16FundamentalValue12GetAsIntegerEPi@Base 0.0.1
 _ZNK4base16FundamentalValue6EqualsEPKNS_5ValueE@Base 0.0.1
 _ZNK4base16FundamentalValue8DeepCopyEv@Base 0.0.1
 _ZNK4base4Time10ToJavaTimeEv@Base 0.0.1
 _ZNK4base4Time13LocalMidnightEv@Base 0.0.1
 _ZNK4base4Time7ExplodeEbPNS0_8ExplodedE@Base 0.0.1
 _ZNK4base4Time7ToTimeTEv@Base 0.0.1
 _ZNK4base4Time8Exploded14HasValidValuesEv@Base 0.0.1
 _ZNK4base4Time8ToJsTimeEv@Base 0.0.1
 _ZNK4base4Time9ToDoubleTEv@Base 0.0.1
 _ZNK4base4Time9ToTimeValEv@Base 0.0.1
 _ZNK4base5Value11GetAsBinaryEPPKNS_11BinaryValueE@Base 0.0.1
 _ZNK4base5Value11GetAsDoubleEPd@Base 0.0.1
 _ZNK4base5Value11GetAsStringEPPKNS_11StringValueE@Base 0.0.1
 _ZNK4base5Value11GetAsStringEPSs@Base 0.0.1
 _ZNK4base5Value12GetAsBooleanEPb@Base 0.0.1
 _ZNK4base5Value12GetAsIntegerEPi@Base 0.0.1
 _ZNK4base5Value14CreateDeepCopyEv@Base 0.0.1
 _ZNK4base5Value15GetAsDictionaryEPPKNS_15DictionaryValueE@Base 0.0.1
 _ZNK4base5Value6EqualsEPKS0_@Base 0.0.1
 _ZNK4base5Value8DeepCopyEv@Base 0.0.1
 _ZNK4base5Value9GetAsListEPPKNS_9ListValueE@Base 0.0.1
 _ZNK4base6subtle24RefCountedThreadSafeBase6AddRefEv@Base 0.0.1
 _ZNK4base6subtle24RefCountedThreadSafeBase7ReleaseEv@Base 0.0.1
 _ZNK4base6subtle24RefCountedThreadSafeBase9HasOneRefEv@Base 0.0.1
 _ZNK4base8internal12CallbackBase6EqualsERKS1_@Base 0.0.1
 _ZNK4base8internal13WeakReference4Flag7IsValidEv@Base 0.0.1
 _ZNK4base8internal13WeakReference8is_validEv@Base 0.0.1
 _ZNK4base8internal18WeakReferenceOwner6GetRefEv@Base 0.0.1
 _ZNK4base9ListValue10GetBooleanEmPb@Base 0.0.1
 _ZNK4base9ListValue10GetIntegerEmPi@Base 0.0.1
 _ZNK4base9ListValue13GetDictionaryEmPPKNS_15DictionaryValueE@Base 0.0.1
 _ZNK4base9ListValue14CreateDeepCopyEv@Base 0.0.1
 _ZNK4base9ListValue3GetEmPPKNS_5ValueE@Base 0.0.1
 _ZNK4base9ListValue4FindERKNS_5ValueE@Base 0.0.1
 _ZNK4base9ListValue6EqualsEPKNS_5ValueE@Base 0.0.1
 _ZNK4base9ListValue7GetListEmPPKS0_@Base 0.0.1
 _ZNK4base9ListValue8DeepCopyEv@Base 0.0.1
 _ZNK4base9ListValue9GetAsListEPPKS0_@Base 0.0.1
 _ZNK4base9ListValue9GetBinaryEmPPKNS_11BinaryValueE@Base 0.0.1
 _ZNK4base9ListValue9GetDoubleEmPd@Base 0.0.1
 _ZNK4base9ListValue9GetStringEmPSs@Base 0.0.1
 _ZNK4base9TimeDelta10InSecondsFEv@Base 0.0.1
 _ZNK4base9TimeDelta10ToTimeSpecEv@Base 0.0.1
 _ZNK4base9TimeDelta14InMicrosecondsEv@Base 0.0.1
 _ZNK4base9TimeDelta14InMillisecondsEv@Base 0.0.1
 _ZNK4base9TimeDelta15InMillisecondsFEv@Base 0.0.1
 _ZNK4base9TimeDelta23InMillisecondsRoundedUpEv@Base 0.0.1
 _ZNK4base9TimeDelta6InDaysEv@Base 0.0.1
 _ZNK4base9TimeDelta7InHoursEv@Base 0.0.1
 _ZNK4base9TimeDelta9InMinutesEv@Base 0.0.1
 _ZNK4base9TimeDelta9InSecondsEv@Base 0.0.1
 _ZNK5weave5Error13GetFirstErrorEv@Base 0.0.1
 _ZNK5weave5Error5CloneEv@Base 0.0.1
 _ZNK5weave5Error8HasErrorERKSsS2_@Base 0.0.1
 _ZNK5weave5Error9HasDomainERKSs@Base 0.0.1
 _ZNSs12_S_constructIN9__gnu_cxx17__normal_iteratorIPcSsEEEES2_T_S4_RKSaIcESt20forward_iterator_tag@Base 0.0.1
 _ZNSs12_S_constructIN9__gnu_cxx17__normal_iteratorIPhSt6vectorIhSaIhEEEEEEPcT_S8_RKSaIcESt20forward_iterator_tag@Base 0.0.1
 _ZNSs12_S_constructIPcEES0_T_S1_RKSaIcESt20forward_iterator_tag@Base 0.0.1
 _ZNSt11_Deque_baseISt4pairIN4base4TimeESsESaIS3_EE17_M_initialize_mapEm@Base 0.0.1
 _ZNSt12_Destroy_auxILb0EE9__destroyIPSt10unique_ptrIN5weave7XmlNodeESt14default_deleteIS4_EEEEvT_S9_@Base 0.0.1
 _ZNSt15basic_stringbufIcSt11char_traitsIcESaIcEED0Ev@Base 0.0.1
 _ZNSt15basic_stringbufIcSt11char_traitsIcESaIcEED1Ev@Base 0.0.1
 _ZNSt15basic_stringbufIcSt11char_traitsIcESaIcEED2Ev@Base 0.0.1
 _ZNSt16_Sp_counted_baseILN9__gnu_cxx12_Lock_policyE2EE10_M_destroyEv@Base 0.0.1
 _ZNSt16_Sp_counted_baseILN9__gnu_cxx12_Lock_policyE2EE10_M_releaseEv@Base 0.0.1
 _ZNSt16_Sp_counted_baseILN9__gnu_cxx12_Lock_policyE2EE15_M_weak_releaseEv@Base 0.0.1
 _ZNSt16_Sp_counted_baseILN9__gnu_cxx12_Lock_policyE2EED0Ev@Base 0.0.1
 _ZNSt16_Sp_counted_baseILN9__gnu_cxx12_Lock_policyE2EED1Ev@Base 0.0.1
 _ZNSt16_Sp_counted_baseILN9__gnu_cxx12_Lock_policyE2EED2Ev@Base 0.0.1
 _ZNSt4pairISsSsED1Ev@Base 0.0.1
 _ZNSt4pairISsSsED2Ev@Base 0.0.1
 _ZNSt5dequeISt4pairIN4base4TimeESsESaIS3_EE16_M_push_back_auxIIS3_EEEvDpOT_@Base 0.0.1
 _ZNSt5dequeISt4pairIN4base4TimeESsESaIS3_EE16_M_push_back_auxIJS3_EEEvDpOT_@Base 0.0.1
 _ZNSt5dequeISt4pairIN4base4TimeESsESaIS3_EE19_M_destroy_data_auxESt15_Deque_iteratorIS3_RS3_PS3_ES9_@Base 0.0.1
 _ZNSt5dequeISt4pairIN4base4TimeESsESaIS3_EED1Ev@Base 0.0.1
 _ZNSt5dequeISt4pairIN4base4TimeESsESaIS3_EED2Ev@Base 0.0.1
 _ZNSt5dequeISt4pairImSt10unique_ptrIN4base15DictionaryValueESt14default_deleteIS3_EEESaIS7_EE12emplace_backIIS7_EEEvDpOT_@Base 0.0.1
 _ZNSt5dequeISt4pairImSt10unique_ptrIN4base15DictionaryValueESt14default_deleteIS3_EEESaIS7_EE12emplace_backIJS7_EEEvDpOT_@Base 0.0.1
 _ZNSt5dequeISt4pairImSt10unique_ptrIN4base15DictionaryValueESt14default_deleteIS3_EEESaIS7_EE5eraseESt15_Deque_iteratorIS7_RS7_PS7_ESD_@Base 0.0.1
 _ZNSt5dequeISt4pairImSt10unique_ptrIN4base15DictionaryValueESt14default_deleteIS3_EEESaIS7_EED1Ev@Base 0.0.1
 _ZNSt5dequeISt4pairImSt10unique_ptrIN4base15DictionaryValueESt14default_deleteIS3_EEESaIS7_EED2Ev@Base 0.0.1
 _ZNSt6vectorIPN4base5ValueESaIS2_EE13_M_insert_auxIIRKS2_EEEvN9__gnu_cxx17__normal_iteratorIPS2_S4_EEDpOT_@Base 0.0.1
 _ZNSt6vectorIPN4base5ValueESaIS2_EE13_M_insert_auxIIS2_EEEvN9__gnu_cxx17__normal_iteratorIPS2_S4_EEDpOT_@Base 0.0.1
 _ZNSt6vectorIPN4base5ValueESaIS2_EE13_M_insert_auxIJRKS2_EEEvN9__gnu_cxx17__normal_iteratorIPS2_S4_EEDpOT_@Base 0.0.1
 _ZNSt6vectorIPN4base5ValueESaIS2_EE13_M_insert_auxIJS2_EEEvN9__gnu_cxx17__normal_iteratorIPS2_S4_EEDpOT_@Base 0.0.1
 _ZNSt6vectorIPN4base5ValueESaIS2_EE19_M_emplace_back_auxIIRKS2_EEEvDpOT_@Base 0.0.1
 _ZNSt6vectorIPN4base5ValueESaIS2_EE19_M_emplace_back_auxIJRKS2_EEEvDpOT_@Base 0.0.1
 _ZNSt6vectorIPN4base5ValueESaIS2_EE5eraseEN9__gnu_cxx17__normal_iteratorIPS2_S4_EE@Base 0.0.1
 _ZNSt6vectorISsSaISsEE12emplace_backIISsEEEvDpOT_@Base 0.0.1
 _ZNSt6vectorISsSaISsEE12emplace_backIJSsEEEvDpOT_@Base 0.0.1
 _ZNSt6vectorISsSaISsEE19_M_emplace_back_auxIIRKSsEEEvDpOT_@Base 0.0.1
 _ZNSt6vectorISsSaISsEE19_M_emplace_back_auxIISsEEEvDpOT_@Base 0.0.1
 _ZNSt6vectorISsSaISsEE19_M_emplace_back_auxIJRKSsEEEvDpOT_@Base 0.0.1
 _ZNSt6vectorISsSaISsEE19_M_emplace_back_auxIJSsEEEvDpOT_@Base 0.0.1
 _ZNSt6vectorISsSaISsEE7reserveEm@Base 0.0.1
 _ZNSt6vectorISsSaISsEED1Ev@Base 0.0.1
 _ZNSt6vectorISsSaISsEED2Ev@Base 0.0.1
 _ZNSt6vectorISsSaISsEEaSERKS1_@Base 0.0.1
 _ZNSt6vectorISt4pairIN5weave9ValueTypeESsESaIS3_EED1Ev@Base 0.0.1
 _ZNSt6vectorISt4pairIN5weave9ValueTypeESsESaIS3_EED2Ev@Base 0.0.1
 _ZNSt6vectorISt4pairISsSsESaIS1_EE19_M_emplace_back_auxIIRA_KcRKSsEEEvDpOT_@Base 0.0.1
 _ZNSt6vectorISt4pairISsSsESaIS1_EE19_M_emplace_back_auxIIRA_KcSsEEEvDpOT_@Base 0.0.1
 _ZNSt6vectorISt4pairISsSsESaIS1_EE19_M_emplace_back_auxIISsSsEEEvDpOT_@Base 0.0.1
 _ZNSt6vectorISt4pairISsSsESaIS1_EE19_M_emplace_back_auxIJRA_KcRKSsEEEvDpOT_@Base 0.0.1
 _ZNSt6vectorISt4pairISsSsESaIS1_EE19_M_emplace_back_auxIJRA_KcSsEEEvDpOT_@Base 0.0.1
 _ZNSt6vectorISt4pairISsSsESaIS1_EE19_M_emplace_back_auxIJSsSsEEEvDpOT_@Base 0.0.1
 _ZNSt6vectorISt4pairISsSsESaIS1_EEC1ESt16initializer_listIS1_ERKS2_@Base 0.0.1
 _ZNSt6vectorISt4pairISsSsESaIS1_EEC2ESt16initializer_listIS1_ERKS2_@Base 0.0.1
 _ZNSt6vectorISt4pairISsSsESaIS1_EED1Ev@Base 0.0.1
 _ZNSt6vectorISt4pairISsSsESaIS1_EED2Ev@Base 0.0.1
 _ZNSt6vectorIcSaIcEE17_M_default_appendEm@Base 0.0.1
 _ZNSt6vectorIhSaIhEE15_M_range_insertIN9__gnu_cxx17__normal_iteratorIPKcSsEEEEvNS4_IPhS1_EET_SA_St20forward_iterator_tag@Base 0.0.1
 _ZNSt6vectorIhSaIhEE15_M_range_insertIN9__gnu_cxx17__normal_iteratorIPhS1_EEEEvS6_T_S7_St20forward_iterator_tag@Base 0.0.1
 _ZNSt6vectorIhSaIhEE15_M_range_insertIPKcEEvN9__gnu_cxx17__normal_iteratorIPhS1_EET_S9_St20forward_iterator_tag@Base 0.0.1
 _ZNSt6vectorIhSaIhEE17_M_default_appendEm@Base 0.0.1
 _ZNSt6vectorIhSaIhEE19_M_emplace_back_auxIIhEEEvDpOT_@Base 0.0.1
 _ZNSt6vectorIhSaIhEE19_M_emplace_back_auxIJhEEEvDpOT_@Base 0.0.1
 _ZNSt6vectorIhSaIhEEaSERKS1_@Base 0.0.1
 _ZNSt8_Rb_treeIN5weave11PairingTypeES1_St9_IdentityIS1_ESt4lessIS1_ESaIS1_EE17_M_emplace_uniqueIIS1_EEESt4pairISt17_Rb_tree_iteratorIS1_EbEDpOT_@Base 0.0.1
 _ZNSt8_Rb_treeIN5weave11PairingTypeES1_St9_IdentityIS1_ESt4lessIS1_ESaIS1_EE17_M_emplace_uniqueIJS1_EEESt4pairISt17_Rb_tree_iteratorIS1_EbEDpOT_@Base 0.0.1
 _ZNSt8_Rb_treeIN5weave11PairingTypeES1_St9_IdentityIS1_ESt4lessIS1_ESaIS1_EE7_M_copyEPKSt13_Rb_tree_nodeIS1_EPS9_@Base 0.0.1
 _ZNSt8_Rb_treeIN5weave11PairingTypeES1_St9_IdentityIS1_ESt4lessIS1_ESaIS1_EE8_M_eraseEPSt13_Rb_tree_nodeIS1_E@Base 0.0.1
 _ZNSt8_Rb_treeIN5weave6privet10CryptoTypeES2_St9_IdentityIS2_ESt4lessIS2_ESaIS2_EE16_M_insert_uniqueIS2_EESt4pairISt17_Rb_tree_iteratorIS2_EbEOT_@Base 0.0.1
 _ZNSt8_Rb_treeIN5weave6privet10CryptoTypeES2_St9_IdentityIS2_ESt4lessIS2_ESaIS2_EE24_M_get_insert_unique_posERKS2_@Base 0.0.1
 _ZNSt8_Rb_treeIN5weave6privet10CryptoTypeES2_St9_IdentityIS2_ESt4lessIS2_ESaIS2_EE29_M_get_insert_hint_unique_posESt23_Rb_tree_const_iteratorIS2_ERKS2_@Base 0.0.1
 _ZNSt8_Rb_treeIN5weave6privet10CryptoTypeES2_St9_IdentityIS2_ESt4lessIS2_ESaIS2_EE8_M_eraseEPSt13_Rb_tree_nodeIS2_E@Base 0.0.1
 _ZNSt8_Rb_treeIN5weave6privet8WifiTypeES2_St9_IdentityIS2_ESt4lessIS2_ESaIS2_EE24_M_get_insert_unique_posERKS2_@Base 0.0.1
 _ZNSt8_Rb_treeIN5weave6privet8WifiTypeES2_St9_IdentityIS2_ESt4lessIS2_ESaIS2_EE29_M_get_insert_hint_unique_posESt23_Rb_tree_const_iteratorIS2_ERKS2_@Base 0.0.1
 _ZNSt8_Rb_treeIN5weave6privet8WifiTypeES2_St9_IdentityIS2_ESt4lessIS2_ESaIS2_EE8_M_eraseEPSt13_Rb_tree_nodeIS2_E@Base 0.0.1
 _ZNSt8_Rb_treeISsSsSt9_IdentityISsESt4lessISsESaISsEE10_M_insert_IRKSsEESt17_Rb_tree_iteratorISsEPSt18_Rb_tree_node_baseSC_OT_@Base 0.0.1
 _ZNSt8_Rb_treeISsSsSt9_IdentityISsESt4lessISsESaISsEE16_M_insert_uniqueIRKSsEESt4pairISt17_Rb_tree_iteratorISsEbEOT_@Base 0.0.1
 _ZNSt8_Rb_treeISsSsSt9_IdentityISsESt4lessISsESaISsEE16_M_insert_uniqueISsEESt4pairISt17_Rb_tree_iteratorISsEbEOT_@Base 0.0.1
 _ZNSt8_Rb_treeISsSsSt9_IdentityISsESt4lessISsESaISsEE17_M_emplace_uniqueIIRKSsEEESt4pairISt17_Rb_tree_iteratorISsEbEDpOT_@Base 0.0.1
 _ZNSt8_Rb_treeISsSsSt9_IdentityISsESt4lessISsESaISsEE17_M_emplace_uniqueIJRKSsEEESt4pairISt17_Rb_tree_iteratorISsEbEDpOT_@Base 0.0.1
 _ZNSt8_Rb_treeISsSsSt9_IdentityISsESt4lessISsESaISsEE24_M_get_insert_unique_posERKSs@Base 0.0.1
 _ZNSt8_Rb_treeISsSsSt9_IdentityISsESt4lessISsESaISsEE29_M_get_insert_hint_unique_posESt23_Rb_tree_const_iteratorISsERKSs@Base 0.0.1
 _ZNSt8_Rb_treeISsSsSt9_IdentityISsESt4lessISsESaISsEE4findERKSs@Base 0.0.1
 _ZNSt8_Rb_treeISsSsSt9_IdentityISsESt4lessISsESaISsEE8_M_eraseEPSt13_Rb_tree_nodeISsE@Base 0.0.1
 _ZNSt8_Rb_treeISsSt4pairIKSsSsESt10_Select1stIS2_ESt4lessISsESaIS2_EE17_M_emplace_uniqueIIRPKcSC_EEES0_ISt17_Rb_tree_iteratorIS2_EbEDpOT_@Base 0.0.1
 _ZNSt8_Rb_treeISsSt4pairIKSsSsESt10_Select1stIS2_ESt4lessISsESaIS2_EE17_M_emplace_uniqueIJRPKcSC_EEES0_ISt17_Rb_tree_iteratorIS2_EbEDpOT_@Base 0.0.1
 _ZNSt8_Rb_treeISsSt4pairIKSsSsESt10_Select1stIS2_ESt4lessISsESaIS2_EE8_M_eraseEPSt13_Rb_tree_nodeIS2_E@Base 0.0.1
 _ZNSt8_Rb_treeISsSt4pairIKSsmESt10_Select1stIS2_ESt4lessISsESaIS2_EE11equal_rangeERS1_@Base 0.0.1
 _ZNSt8_Rb_treeISsSt4pairIKSsmESt10_Select1stIS2_ESt4lessISsESaIS2_EE14_M_insert_nodeEPSt18_Rb_tree_node_baseSA_PSt13_Rb_tree_nodeIS2_E@Base 0.0.1
 _ZNSt8_Rb_treeISsSt4pairIKSsmESt10_Select1stIS2_ESt4lessISsESaIS2_EE17_M_emplace_uniqueIIRS1_iEEES0_ISt17_Rb_tree_iteratorIS2_EbEDpOT_@Base 0.0.1
 _ZNSt8_Rb_treeISsSt4pairIKSsmESt10_Select1stIS2_ESt4lessISsESaIS2_EE17_M_emplace_uniqueIJRS1_iEEES0_ISt17_Rb_tree_iteratorIS2_EbEDpOT_@Base 0.0.1
 _ZNSt8_Rb_treeISsSt4pairIKSsmESt10_Select1stIS2_ESt4lessISsESaIS2_EE22_M_emplace_hint_uniqueIIRKSt21piecewise_construct_tSt5tupleIIRS1_EESD_IIEEEEESt17_Rb_tree_iteratorIS2_ESt23_Rb_tree_const_iteratorIS2_EDpOT_@Base 0.0.1
 _ZNSt8_Rb_treeISsSt4pairIKSsmESt10_Select1stIS2_ESt4lessISsESaIS2_EE22_M_emplace_hint_uniqueIJRKSt21piecewise_construct_tSt5tupleIJRS1_EESD_IJEEEEESt17_Rb_tree_iteratorIS2_ESt23_Rb_tree_const_iteratorIS2_EDpOT_@Base 0.0.1
 _ZNSt8_Rb_treeISsSt4pairIKSsmESt10_Select1stIS2_ESt4lessISsESaIS2_EE24_M_get_insert_unique_posERS1_@Base 0.0.1
 _ZNSt8_Rb_treeISsSt4pairIKSsmESt10_Select1stIS2_ESt4lessISsESaIS2_EE29_M_get_insert_hint_unique_posESt23_Rb_tree_const_iteratorIS2_ERS1_@Base 0.0.1
 _ZNSt8_Rb_treeISsSt4pairIKSsmESt10_Select1stIS2_ESt4lessISsESaIS2_EE8_M_eraseEPSt13_Rb_tree_nodeIS2_E@Base 0.0.1
 _ZSt20__throw_bad_weak_ptrv@Base 0.0.1
 _ZSt6__findIPKccET_S2_S2_RKT0_St26random_access_iterator_tag@Base 0.0.1
 _ZSt6__findISt16reverse_iteratorIPKcEcET_S4_S4_RKT0_St26random_access_iterator_tag@Base 0.0.1
 _ZStplIcSt11char_traitsIcESaIcEESbIT_T0_T1_EPKS3_RKS6_@Base 0.0.1
 _ZTIN4base11BinaryValueE@Base 0.0.1
 _ZTIN4base11StringValueE@Base 0.0.1
 _ZTIN4base15DictionaryValueE@Base 0.0.1
 _ZTIN4base16FundamentalValueE@Base 0.0.1
 _ZTIN4base5ClockE@Base 0.0.1
 _ZTIN4base5ValueE@Base 0.0.1
 _ZTIN4base9ListValueE@Base 0.0.1
 _ZTISt11_Mutex_baseILN9__gnu_cxx12_Lock_policyE2EE@Base 0.0.1
 _ZTISt16_Sp_counted_baseILN9__gnu_cxx12_Lock_policyE2EE@Base 0.0.1
 _ZTISt19_Sp_make_shared_tag@Base 0.0.1
 _ZTSN4base11BinaryValueE@Base 0.0.1
 _ZTSN4base11StringValueE@Base 0.0.1
 _ZTSN4base15DictionaryValueE@Base 0.0.1
 _ZTSN4base16FundamentalValueE@Base 0.0.1
 _ZTSN4base5ClockE@Base 0.0.1
 _ZTSN4base5ValueE@Base 0.0.1
 _ZTSN4base9ListValueE@Base 0.0.1
 _ZTSSt11_Mutex_baseILN9__gnu_cxx12_Lock_policyE2EE@Base 0.0.1
 _ZTSSt16_Sp_counted_baseILN9__gnu_cxx12_Lock_policyE2EE@Base 0.0.1
 _ZTSSt19_Sp_make_shared_tag@Base 0.0.1
 _ZTVN4base11BinaryValueE@Base 0.0.1
 _ZTVN4base11StringValueE@Base 0.0.1
 _ZTVN4base15DictionaryValueE@Base 0.0.1
 _ZTVN4base16FundamentalValueE@Base 0.0.1
 _ZTVN4base5ClockE@Base 0.0.1
 _ZTVN4base5ValueE@Base 0.0.1
 _ZTVN4base9ListValueE@Base 0.0.1
 _ZTVSt16_Sp_counted_baseILN9__gnu_cxx12_Lock_policyE2EE@Base 0.0.1
